; Function Attrs: nounwind uwtable
define ptr @l_Std_Range_forIn_x27_loop___at_Lean_Meta_MatcherApp_transform___spec__8___rarg___lambda__8(ptr noundef %0, ptr noundef %1, ptr noundef %2, ptr noundef %3, ptr noundef %4, ptr noundef %5, ptr noundef %6) #1 {
  %8 = tail call ptr @lean_array_push(ptr noundef %0, ptr noundef %6) #4
  %9 = getelementptr inbounds nuw i8, ptr %1, i64 8
  %10 = load ptr, ptr %9, align 8, !tbaa !4
  %11 = ptrtoint ptr %10 to i64
  %12 = and i64 %11, 1
  %.not = icmp eq i64 %12, 0
  br i1 %.not, label %13, label %lean_inc.exit26

13:                                               ; preds = %7
  %.val.i = load i32, ptr %10, align 4, !tbaa !8
  %14 = icmp sgt i32 %.val.i, 0
  br i1 %14, label %15, label %17, !prof !11

15:                                               ; preds = %13
  %16 = add nuw i32 %.val.i, 1
  store i32 %16, ptr %10, align 4, !tbaa !8
  br label %lean_inc.exit26

17:                                               ; preds = %13
  %.not.i30 = icmp eq i32 %.val.i, 0
  br i1 %.not.i30, label %lean_inc.exit26, label %18

18:                                               ; preds = %17
  tail call void @lean_inc_ref_cold(ptr noundef nonnull %10) #4
  br label %lean_inc.exit26

lean_inc.exit26:                                  ; preds = %18, %17, %15, %7
  %19 = ptrtoint ptr %1 to i64
  %20 = and i64 %19, 1
  %.not37 = icmp eq i64 %20, 0
  br i1 %.not37, label %21, label %lean_dec.exit27

21:                                               ; preds = %lean_inc.exit26
  %22 = load i32, ptr %1, align 4, !tbaa !8
  %23 = icmp sgt i32 %22, 1
  br i1 %23, label %24, label %26, !prof !11

24:                                               ; preds = %21
  %25 = add nsw i32 %22, -1
  store i32 %25, ptr %1, align 4, !tbaa !8
  br label %lean_dec.exit27

26:                                               ; preds = %21
  %.not.i = icmp eq i32 %22, 0
  br i1 %.not.i, label %lean_dec.exit27, label %27

27:                                               ; preds = %26
  tail call void @lean_dec_ref_cold(ptr noundef nonnull %1) #4
  br label %lean_dec.exit27

lean_dec.exit27:                                  ; preds = %27, %26, %24, %lean_inc.exit26
  %28 = getelementptr inbounds nuw i8, ptr %10, i64 16
  %29 = load ptr, ptr %28, align 8, !tbaa !4
  %30 = ptrtoint ptr %29 to i64
  %31 = and i64 %30, 1
  %.not38 = icmp eq i64 %31, 0
  br i1 %.not38, label %32, label %lean_inc.exit25

32:                                               ; preds = %lean_dec.exit27
  %.val.i31 = load i32, ptr %29, align 4, !tbaa !8
  %33 = icmp sgt i32 %.val.i31, 0
  br i1 %33, label %34, label %36, !prof !11

34:                                               ; preds = %32
  %35 = add nuw i32 %.val.i31, 1
  store i32 %35, ptr %29, align 4, !tbaa !8
  br label %lean_inc.exit25

36:                                               ; preds = %32
  %.not.i32 = icmp eq i32 %.val.i31, 0
  br i1 %.not.i32, label %lean_inc.exit25, label %37

37:                                               ; preds = %36
  tail call void @lean_inc_ref_cold(ptr noundef nonnull %29) #4
  br label %lean_inc.exit25

lean_inc.exit25:                                  ; preds = %37, %36, %34, %lean_dec.exit27
  br i1 %.not, label %38, label %lean_dec.exit

38:                                               ; preds = %lean_inc.exit25
  %39 = load i32, ptr %10, align 4, !tbaa !8
  %40 = icmp sgt i32 %39, 1
  br i1 %40, label %41, label %43, !prof !11

41:                                               ; preds = %38
  %42 = add nsw i32 %39, -1
  store i32 %42, ptr %10, align 4, !tbaa !8
  br label %lean_dec.exit

43:                                               ; preds = %38
  %.not.i28 = icmp eq i32 %39, 0
  br i1 %.not.i28, label %lean_dec.exit, label %44

44:                                               ; preds = %43
  tail call void @lean_dec_ref_cold(ptr noundef nonnull %10) #4
  br label %lean_dec.exit

lean_dec.exit:                                    ; preds = %44, %43, %41, %lean_inc.exit25
  br i1 %.not38, label %45, label %lean_inc.exit

45:                                               ; preds = %lean_dec.exit
  %.val.i34 = load i32, ptr %29, align 4, !tbaa !8
  %46 = icmp sgt i32 %.val.i34, 0
  br i1 %46, label %47, label %49, !prof !11

47:                                               ; preds = %45
  %48 = add nuw i32 %.val.i34, 1
  store i32 %48, ptr %29, align 4, !tbaa !8
  br label %lean_inc.exit

49:                                               ; preds = %45
  %.not.i35 = icmp eq i32 %.val.i34, 0
  br i1 %.not.i35, label %lean_inc.exit, label %50

50:                                               ; preds = %49
  tail call void @lean_inc_ref_cold(ptr noundef nonnull %29) #4
  br label %lean_inc.exit

lean_inc.exit:                                    ; preds = %50, %49, %47, %lean_dec.exit
  %51 = tail call ptr @lean_apply_2(ptr noundef %29, ptr noundef nonnull inttoptr (i64 1 to ptr), ptr noundef nonnull inttoptr (i64 1 to ptr)) #4
  tail call void @lean_inc_heartbeat() #4
  %52 = tail call noalias ptr @mi_malloc_small(i64 noundef 64) #4
  %53 = icmp eq ptr %52, null
  br i1 %53, label %54, label %lean_alloc_closure.exit

54:                                               ; preds = %lean_inc.exit
  tail call void @lean_internal_panic_out_of_memory() #5
  unreachable

lean_alloc_closure.exit:                          ; preds = %lean_inc.exit
  %55 = getelementptr inbounds nuw i8, ptr %52, i64 4
  store i32 1, ptr %52, align 4, !tbaa !8
  store i32 -184549312, ptr %55, align 4
  %56 = getelementptr inbounds nuw i8, ptr %52, i64 8
  store ptr @l_Array_forIn_x27Unsafe_loop___at_Lean_Meta_MatcherApp_transform___spec__1___rarg___lambda__2___boxed, ptr %56, align 8, !tbaa !4
  %57 = getelementptr inbounds nuw i8, ptr %52, i64 16
  store i16 6, ptr %57, align 8, !tbaa !15
  %58 = getelementptr inbounds nuw i8, ptr %52, i64 18
  store i16 5, ptr %58, align 2, !tbaa !15
  %59 = getelementptr inbounds nuw i8, ptr %52, i64 24
  store ptr %2, ptr %59, align 8, !tbaa !4
  %60 = getelementptr inbounds nuw i8, ptr %52, i64 32
  store ptr %8, ptr %60, align 8, !tbaa !4
  %61 = getelementptr inbounds nuw i8, ptr %52, i64 40
  store ptr %3, ptr %61, align 8, !tbaa !4
  %62 = getelementptr inbounds nuw i8, ptr %52, i64 48
  store ptr %4, ptr %62, align 8, !tbaa !4
  %63 = getelementptr inbounds nuw i8, ptr %52, i64 56
  store ptr %29, ptr %63, align 8, !tbaa !4
  %64 = tail call ptr @lean_apply_4(ptr noundef %5, ptr noundef nonnull inttoptr (i64 1 to ptr), ptr noundef nonnull inttoptr (i64 1 to ptr), ptr noundef %51, ptr noundef nonnull %52) #4
  ret ptr %64
}